liblttoolbox3-3.3.so.0:_ZN10EntryToken11setParadigmERKNSt7__cxx1112basic_stringIwSt11char_traitsIwESaIwEEE
liblttoolbox3-3.3.so.0:_ZN10EntryToken21setSingleTransductionERKNSt7__cxx114listIiSaIiEEES5_
liblttoolbox3-3.3.so.0:_ZN10EntryToken4copyERKS_
liblttoolbox3-3.3.so.0:_ZN10EntryToken7destroyEv
liblttoolbox3-3.3.so.0:_ZN10EntryToken9setRegexpERKNSt7__cxx1112basic_stringIwSt11char_traitsIwESaIwEEE
liblttoolbox3-3.3.so.0:_ZN10EntryTokenC1ERKS_
liblttoolbox3-3.3.so.0:_ZN10EntryTokenC1Ev
liblttoolbox3-3.3.so.0:_ZN10EntryTokenC2ERKS_
liblttoolbox3-3.3.so.0:_ZN10EntryTokenC2Ev
liblttoolbox3-3.3.so.0:_ZN10EntryTokenD1Ev
liblttoolbox3-3.3.so.0:_ZN10EntryTokenD2Ev
liblttoolbox3-3.3.so.0:_ZN10EntryTokenaSERKS_
liblttoolbox3-3.3.so.0:_ZN10MatchState11applySymbolEP9MatchNodei
liblttoolbox3-3.3.so.0:_ZN10MatchState4copyERKS_
liblttoolbox3-3.3.so.0:_ZN10MatchState4initEP9MatchNode
liblttoolbox3-3.3.so.0:_ZN10MatchState4stepEi
liblttoolbox3-3.3.so.0:_ZN10MatchState4stepEii
liblttoolbox3-3.3.so.0:_ZN10MatchState5clearEv
liblttoolbox3-3.3.so.0:_ZN10MatchState7destroyEv
liblttoolbox3-3.3.so.0:_ZN10MatchStateC1ERKS_
liblttoolbox3-3.3.so.0:_ZN10MatchStateC1Ev
liblttoolbox3-3.3.so.0:_ZN10MatchStateC2ERKS_
liblttoolbox3-3.3.so.0:_ZN10MatchStateC2Ev
liblttoolbox3-3.3.so.0:_ZN10MatchStateD1Ev
liblttoolbox3-3.3.so.0:_ZN10MatchStateD2Ev
liblttoolbox3-3.3.so.0:_ZN10MatchStateaSERKS_
liblttoolbox3-3.3.so.0:_ZN10Transducer10joinFinalsEi
liblttoolbox3-3.3.so.0:_ZN10Transducer10linkStatesEiii
liblttoolbox3-3.3.so.0:_ZN10Transducer10zeroOrMoreEi
liblttoolbox3-3.3.so.0:_ZN10Transducer11determinizeEi
liblttoolbox3-3.3.so.0:_ZN10Transducer12getStateSizeEi
liblttoolbox3-3.3.so.0:_ZN10Transducer13appendDotStarERKSt3setIiSt4lessIiESaIiEEi
liblttoolbox3-3.3.so.0:_ZN10Transducer13moveLemqsLastERK8Alphabeti
liblttoolbox3-3.3.so.0:_ZN10Transducer16insertTransducerEiRS_i
liblttoolbox3-3.3.so.0:_ZN10Transducer17copyWithTagsFirstEiiRK8Alphabeti
liblttoolbox3-3.3.so.0:_ZN10Transducer19isEmptyIntersectionERKSt3setIiSt4lessIiESaIiEES6_
liblttoolbox3-3.3.so.0:_ZN10Transducer24insertSingleTransductionEii
liblttoolbox3-3.3.so.0:_ZN10Transducer27insertNewSingleTransductionEii
liblttoolbox3-3.3.so.0:_ZN10Transducer4copyERKS_
liblttoolbox3-3.3.so.0:_ZN10Transducer4readEP8_IO_FILEi
liblttoolbox3-3.3.so.0:_ZN10Transducer5clearEv
liblttoolbox3-3.3.so.0:_ZN10Transducer5writeEP8_IO_FILEi
liblttoolbox3-3.3.so.0:_ZN10Transducer7closureEii
liblttoolbox3-3.3.so.0:_ZN10Transducer7destroyEv
liblttoolbox3-3.3.so.0:_ZN10Transducer7reverseEi
liblttoolbox3-3.3.so.0:_ZN10Transducer8minimizeEi
liblttoolbox3-3.3.so.0:_ZN10Transducer8newStateEv
liblttoolbox3-3.3.so.0:_ZN10Transducer8optionalEi
liblttoolbox3-3.3.so.0:_ZN10Transducer8setFinalEib
liblttoolbox3-3.3.so.0:_ZN10Transducer9intersectERS_RK8AlphabetS3_i
liblttoolbox3-3.3.so.0:_ZN10Transducer9oneOrMoreEi
liblttoolbox3-3.3.so.0:_ZN10Transducer9recogniseENSt7__cxx1112basic_stringIwSt11char_traitsIwESaIwEEER8AlphabetP8_IO_FILE
liblttoolbox3-3.3.so.0:_ZN10Transducer9unionWithER8AlphabetRS_i
liblttoolbox3-3.3.so.0:_ZN10TransducerC1ERKS_
liblttoolbox3-3.3.so.0:_ZN10TransducerC1Ev
liblttoolbox3-3.3.so.0:_ZN10TransducerC2ERKS_
liblttoolbox3-3.3.so.0:_ZN10TransducerC2Ev
liblttoolbox3-3.3.so.0:_ZN10TransducerD1Ev
liblttoolbox3-3.3.so.0:_ZN10TransducerD2Ev
liblttoolbox3-3.3.so.0:_ZN10TransduceraSERKS_
liblttoolbox3-3.3.so.0:_ZN11AttCompiler11symbol_codeERKNSt7__cxx1112basic_stringIwSt11char_traitsIwESaIwEEE
liblttoolbox3-3.3.so.0:_ZN11AttCompiler12convert_hfstERNSt7__cxx1112basic_stringIwSt11char_traitsIwESaIwEEE
liblttoolbox3-3.3.so.0:_ZN11AttCompiler18extract_transducerEj
liblttoolbox3-3.3.so.0:_ZN11AttCompiler19_extract_transducerEjiR10TransducerRSt3mapIiiSt4lessIiESaISt4pairIKiiEEERSt3setIiS4_SaIiEE
liblttoolbox3-3.3.so.0:_ZN11AttCompiler5clearEv
liblttoolbox3-3.3.so.0:_ZN11AttCompiler5parseERKNSt7__cxx1112basic_stringIcSt11char_traitsIcESaIcEEERKNS1_IwS2_IwESaIwEEE
liblttoolbox3-3.3.so.0:_ZN11AttCompiler5writeEP8_IO_FILE
liblttoolbox3-3.3.so.0:_ZN11AttCompiler8classifyEiRSt3mapIijSt4lessIiESaISt4pairIKijEEEbj
liblttoolbox3-3.3.so.0:_ZN11AttCompilerC1Ev
liblttoolbox3-3.3.so.0:_ZN11AttCompilerC2Ev
liblttoolbox3-3.3.so.0:_ZN11AttCompilerD1Ev
liblttoolbox3-3.3.so.0:_ZN11AttCompilerD2Ev
liblttoolbox3-3.3.so.0:_ZN11Compression11string_readB5cxx11EP8_IO_FILE
liblttoolbox3-3.3.so.0:_ZN11Compression12string_writeERKNSt7__cxx1112basic_stringIcSt11char_traitsIcESaIcEEEP8_IO_FILE
liblttoolbox3-3.3.so.0:_ZN11Compression12wstring_readB5cxx11EP8_IO_FILE
liblttoolbox3-3.3.so.0:_ZN11Compression13wstring_writeERKNSt7__cxx1112basic_stringIwSt11char_traitsIwESaIwEEEP8_IO_FILE
liblttoolbox3-3.3.so.0:_ZN11Compression14multibyte_readEP8_IO_FILE
liblttoolbox3-3.3.so.0:_ZN11Compression14multibyte_readERSi
liblttoolbox3-3.3.so.0:_ZN11Compression15multibyte_writeEjP8_IO_FILE
liblttoolbox3-3.3.so.0:_ZN11Compression15multibyte_writeEjRSo
liblttoolbox3-3.3.so.0:_ZN11Compression8readByteEP8_IO_FILE
liblttoolbox3-3.3.so.0:_ZN11Compression9writeByteEhP8_IO_FILE
liblttoolbox3-3.3.so.0:_ZN11PatternList11endSequenceEv
liblttoolbox3-3.3.so.0:_ZN11PatternList11getAlphabetEv
liblttoolbox3-3.3.so.0:_ZN11PatternList11getPatternsEv
liblttoolbox3-3.3.so.0:_ZN11PatternList11newMatchExeEv
liblttoolbox3-3.3.so.0:_ZN11PatternList13beginSequenceEv
liblttoolbox3-3.3.so.0:_ZN11PatternList15buildTransducerEv
liblttoolbox3-3.3.so.0:_ZN11PatternList18insertIntoSequenceEiRKNSt7__cxx1112basic_stringIwSt11char_traitsIwESaIwEEES7_
liblttoolbox3-3.3.so.0:_ZN11PatternList19insertOutOfSequenceERKNSt7__cxx1112basic_stringIwSt11char_traitsIwESaIwEEES7_RSt6vectorIiSaIiEE
liblttoolbox3-3.3.so.0:_ZN11PatternList4copyERKS_
liblttoolbox3-3.3.so.0:_ZN11PatternList4readEP8_IO_FILE
liblttoolbox3-3.3.so.0:_ZN11PatternList5tagAtERKNSt7__cxx1112basic_stringIwSt11char_traitsIwESaIwEEEi
liblttoolbox3-3.3.so.0:_ZN11PatternList5writeEP8_IO_FILE
liblttoolbox3-3.3.so.0:_ZN11PatternList6insertEiRKNSt7__cxx1112basic_stringIwSt11char_traitsIwESaIwEEES7_
liblttoolbox3-3.3.so.0:_ZN11PatternList6insertEii
liblttoolbox3-3.3.so.0:_ZN11PatternList7destroyEv
liblttoolbox3-3.3.so.0:_ZN11PatternList8tagCountERKNSt7__cxx1112basic_stringIwSt11char_traitsIwESaIwEEE
liblttoolbox3-3.3.so.0:_ZN11PatternListC1ERKS_
liblttoolbox3-3.3.so.0:_ZN11PatternListC1Ev
liblttoolbox3-3.3.so.0:_ZN11PatternListC2ERKS_
liblttoolbox3-3.3.so.0:_ZN11PatternListC2Ev
liblttoolbox3-3.3.so.0:_ZN11PatternListD1Ev
liblttoolbox3-3.3.so.0:_ZN11PatternListD2Ev
liblttoolbox3-3.3.so.0:_ZN11PatternListaSERKS_
liblttoolbox3-3.3.so.0:_ZN11TMXCompiler10skipBlanksERNSt7__cxx1112basic_stringIwSt11char_traitsIwESaIwEEE
liblttoolbox3-3.3.so.0:_ZN11TMXCompiler11printvectorERKSt6vectorIiSaIiEERSt13basic_ostreamIwSt11char_traitsIwEE
liblttoolbox3-3.3.so.0:_ZN11TMXCompiler12align_blanksERSt6vectorIiSaIiEES3_
liblttoolbox3-3.3.so.0:_ZN11TMXCompiler16requireAttributeERKNSt7__cxx1112basic_stringIwSt11char_traitsIwESaIwEEES7_S7_
liblttoolbox3-3.3.so.0:_ZN11TMXCompiler17requireEmptyErrorERKNSt7__cxx1112basic_stringIwSt11char_traitsIwESaIwEEE
liblttoolbox3-3.3.so.0:_ZN11TMXCompiler19setMetaLanguageCodeERKNSt7__cxx1112basic_stringIwSt11char_traitsIwESaIwEEE
liblttoolbox3-3.3.so.0:_ZN11TMXCompiler21setOriginLanguageCodeERKNSt7__cxx1112basic_stringIwSt11char_traitsIwESaIwEEE
liblttoolbox3-3.3.so.0:_ZN11TMXCompiler4skipERNSt7__cxx1112basic_stringIwSt11char_traitsIwESaIwEEERKS5_
liblttoolbox3-3.3.so.0:_ZN11TMXCompiler5alignERSt6vectorIiSaIiEES3_
liblttoolbox3-3.3.so.0:_ZN11TMXCompiler5parseERKNSt7__cxx1112basic_stringIcSt11char_traitsIcESaIcEEERKNS1_IwS2_IwESaIwEEESC_
liblttoolbox3-3.3.so.0:_ZN11TMXCompiler5writeEP8_IO_FILE
liblttoolbox3-3.3.so.0:_ZN11TMXCompiler6attribERKNSt7__cxx1112basic_stringIwSt11char_traitsIwESaIwEEE
liblttoolbox3-3.3.so.0:_ZN11TMXCompiler6procTUEv
liblttoolbox3-3.3.so.0:_ZN11TMXCompiler8insertTUERKSt6vectorIiSaIiEES4_
liblttoolbox3-3.3.so.0:_ZN11TMXCompiler8procNodeEv
liblttoolbox3-3.3.so.0:_ZN11TMXCompiler9allBlanksEv
liblttoolbox3-3.3.so.0:_ZN11TMXCompilerC1Ev
liblttoolbox3-3.3.so.0:_ZN11TMXCompilerC2Ev
liblttoolbox3-3.3.so.0:_ZN11TMXCompilerD1Ev
liblttoolbox3-3.3.so.0:_ZN11TMXCompilerD2Ev
liblttoolbox3-3.3.so.0:_ZN12FSTProcessor10generationEP8_IO_FILES1_14GenerationMode
liblttoolbox3-3.3.so.0:_ZN12FSTProcessor10printSpaceEwP8_IO_FILE
liblttoolbox3-3.3.so.0:_ZN12FSTProcessor10removeTagsERKNSt7__cxx1112basic_stringIwSt11char_traitsIwESaIwEEE
liblttoolbox3-3.3.so.0:_ZN12FSTProcessor11calcInitialEv
liblttoolbox3-3.3.so.0:_ZN12FSTProcessor11flushBlanksEP8_IO_FILE
liblttoolbox3-3.3.so.0:_ZN12FSTProcessor11readEscapedEP8_IO_FILE
liblttoolbox3-3.3.so.0:_ZN12FSTProcessor11streamErrorEv
liblttoolbox3-3.3.so.0:_ZN12FSTProcessor11tm_analysisEP8_IO_FILES1_
liblttoolbox3-3.3.so.0:_ZN12FSTProcessor12biltransfullERKNSt7__cxx1112basic_stringIwSt11char_traitsIwESaIwEEEb
liblttoolbox3-3.3.so.0:_ZN12FSTProcessor12getNullFlushEv
liblttoolbox3-3.3.so.0:_ZN12FSTProcessor12initAnalysisEv
liblttoolbox3-3.3.so.0:_ZN12FSTProcessor12initBiltransEv
liblttoolbox3-3.3.so.0:_ZN12FSTProcessor12printSAOWordERKNSt7__cxx1112basic_stringIwSt11char_traitsIwESaIwEEEP8_IO_FILE
liblttoolbox3-3.3.so.0:_ZN12FSTProcessor12readAnalysisEP8_IO_FILE
liblttoolbox3-3.3.so.0:_ZN12FSTProcessor12setNullFlushEb
liblttoolbox3-3.3.so.0:_ZN12FSTProcessor12writeEscapedERKNSt7__cxx1112basic_stringIwSt11char_traitsIwESaIwEEEP8_IO_FILE
liblttoolbox3-3.3.so.0:_ZN12FSTProcessor13firstNotAlphaERKNSt7__cxx1112basic_stringIwSt11char_traitsIwESaIwEEE
liblttoolbox3-3.3.so.0:_ZN12FSTProcessor13readBilingualB5cxx11EP8_IO_FILES1_
liblttoolbox3-3.3.so.0:_ZN12FSTProcessor13readFullBlockB5cxx11EP8_IO_FILEww
liblttoolbox3-3.3.so.0:_ZN12FSTProcessor14classifyFinalsEv
liblttoolbox3-3.3.so.0:_ZN12FSTProcessor14initGenerationEv
liblttoolbox3-3.3.so.0:_ZN12FSTProcessor14initTMAnalysisEv
liblttoolbox3-3.3.so.0:_ZN12FSTProcessor14postgenerationEP8_IO_FILES1_
liblttoolbox3-3.3.so.0:_ZN12FSTProcessor14readGenerationEP8_IO_FILES1_
liblttoolbox3-3.3.so.0:_ZN12FSTProcessor14readTMAnalysisEP8_IO_FILE
liblttoolbox3-3.3.so.0:_ZN12FSTProcessor15transliterationEP8_IO_FILES1_
liblttoolbox3-3.3.so.0:_ZN12FSTProcessor16compoundAnalysisENSt7__cxx1112basic_stringIwSt11char_traitsIwESaIwEEEbb
liblttoolbox3-3.3.so.0:_ZN12FSTProcessor16printUnknownWordERKNSt7__cxx1112basic_stringIwSt11char_traitsIwESaIwEEEP8_IO_FILE
liblttoolbox3-3.3.so.0:_ZN12FSTProcessor17biltransWithQueueERKNSt7__cxx1112basic_stringIwSt11char_traitsIwESaIwEEEb
liblttoolbox3-3.3.so.0:_ZN12FSTProcessor17initDecompositionEv
liblttoolbox3-3.3.so.0:_ZN12FSTProcessor18initPostgenerationEv
liblttoolbox3-3.3.so.0:_ZN12FSTProcessor18printWordBilingualERKNSt7__cxx1112basic_stringIwSt11char_traitsIwESaIwEEES7_P8_IO_FILE
liblttoolbox3-3.3.so.0:_ZN12FSTProcessor18readPostgenerationEP8_IO_FILE
liblttoolbox3-3.3.so.0:_ZN12FSTProcessor20biltransWithoutQueueERKNSt7__cxx1112basic_stringIwSt11char_traitsIwESaIwEEEb
liblttoolbox3-3.3.so.0:_ZN12FSTProcessor20getDecompoundingModeEv
liblttoolbox3-3.3.so.0:_ZN12FSTProcessor20setCaseSensitiveModeEb
liblttoolbox3-3.3.so.0:_ZN12FSTProcessor20writeEscapedWithTagsERKNSt7__cxx1112basic_stringIwSt11char_traitsIwESaIwEEEP8_IO_FILE
liblttoolbox3-3.3.so.0:_ZN12FSTProcessor21setDictionaryCaseModeEb
liblttoolbox3-3.3.so.0:_ZN12FSTProcessor23setBiltransSurfaceFormsEb
liblttoolbox3-3.3.so.0:_ZN12FSTProcessor24initDecompositionSymbolsEv
liblttoolbox3-3.3.so.0:_ZN12FSTProcessor27analysis_wrapper_null_flushEP8_IO_FILES1_
liblttoolbox3-3.3.so.0:_ZN12FSTProcessor28bilingual_wrapper_null_flushEP8_IO_FILES1_
liblttoolbox3-3.3.so.0:_ZN12FSTProcessor29generation_wrapper_null_flushEP8_IO_FILES1_14GenerationMode
liblttoolbox3-3.3.so.0:_ZN12FSTProcessor33postgeneration_wrapper_null_flushEP8_IO_FILES1_
liblttoolbox3-3.3.so.0:_ZN12FSTProcessor34transliteration_wrapper_null_flushEP8_IO_FILES1_
liblttoolbox3-3.3.so.0:_ZN12FSTProcessor3SAOEP8_IO_FILES1_
liblttoolbox3-3.3.so.0:_ZN12FSTProcessor4loadEP8_IO_FILE
liblttoolbox3-3.3.so.0:_ZN12FSTProcessor7readSAOEP8_IO_FILE
liblttoolbox3-3.3.so.0:_ZN12FSTProcessor8analysisEP8_IO_FILES1_
liblttoolbox3-3.3.so.0:_ZN12FSTProcessor8biltransERKNSt7__cxx1112basic_stringIwSt11char_traitsIwESaIwEEEb
liblttoolbox3-3.3.so.0:_ZN12FSTProcessor8endsWithERKNSt7__cxx1112basic_stringIwSt11char_traitsIwESaIwEEES7_
liblttoolbox3-3.3.so.0:_ZN12FSTProcessor9bilingualEP8_IO_FILES1_
liblttoolbox3-3.3.so.0:_ZN12FSTProcessor9lastBlankERKNSt7__cxx1112basic_stringIwSt11char_traitsIwESaIwEEE
liblttoolbox3-3.3.so.0:_ZN12FSTProcessor9printWordERKNSt7__cxx1112basic_stringIwSt11char_traitsIwESaIwEEES7_P8_IO_FILE
liblttoolbox3-3.3.so.0:_ZN12FSTProcessor9skipUntilEP8_IO_FILES1_j
liblttoolbox3-3.3.so.0:_ZN12FSTProcessorC1Ev
liblttoolbox3-3.3.so.0:_ZN12FSTProcessorC2Ev
liblttoolbox3-3.3.so.0:_ZN12FSTProcessorD1Ev
liblttoolbox3-3.3.so.0:_ZN12FSTProcessorD2Ev
liblttoolbox3-3.3.so.0:_ZN12SortedVector3addEiP9MatchNodei
liblttoolbox3-3.3.so.0:_ZN12SortedVector4copyERKS_
liblttoolbox3-3.3.so.0:_ZN12SortedVector6searchEi
liblttoolbox3-3.3.so.0:_ZN12SortedVector7destroyEv
liblttoolbox3-3.3.so.0:_ZN12SortedVectorC1ERKS_
liblttoolbox3-3.3.so.0:_ZN12SortedVectorC1Ei
liblttoolbox3-3.3.so.0:_ZN12SortedVectorC2ERKS_
liblttoolbox3-3.3.so.0:_ZN12SortedVectorC2Ei
liblttoolbox3-3.3.so.0:_ZN12SortedVectorD1Ev
liblttoolbox3-3.3.so.0:_ZN12SortedVectorD2Ev
liblttoolbox3-3.3.so.0:_ZN12SortedVectoraSERKS_
liblttoolbox3-3.3.so.0:_ZN12XMLParseUtil5stowsERKNSt7__cxx1112basic_stringIcSt11char_traitsIcESaIcEEE
liblttoolbox3-3.3.so.0:_ZN12XMLParseUtil6attribEP14_xmlTextReaderRKNSt7__cxx1112basic_stringIwSt11char_traitsIwESaIwEEE
liblttoolbox3-3.3.so.0:_ZN12XMLParseUtil6latin1B5cxx11EPKh
liblttoolbox3-3.3.so.0:_ZN12XMLParseUtil9towstringB5cxx11EPKh
liblttoolbox3-3.3.so.0:_ZN14RegexpCompiler10initializeEP8Alphabet
liblttoolbox3-3.3.so.0:_ZN14RegexpCompiler10isReservedEi
liblttoolbox3-3.3.so.0:_ZN14RegexpCompiler11setAlphabetEP8Alphabet
liblttoolbox3-3.3.so.0:_ZN14RegexpCompiler13getTransducerEv
liblttoolbox3-3.3.so.0:_ZN14RegexpCompiler14errorConsumingEi
liblttoolbox3-3.3.so.0:_ZN14RegexpCompiler1SEv
liblttoolbox3-3.3.so.0:_ZN14RegexpCompiler3EspEv
liblttoolbox3-3.3.so.0:_ZN14RegexpCompiler4ColaEv
liblttoolbox3-3.3.so.0:_ZN14RegexpCompiler4ElemEv
liblttoolbox3-3.3.so.0:_ZN14RegexpCompiler4TermEv
liblttoolbox3-3.3.so.0:_ZN14RegexpCompiler4copyERKS_
liblttoolbox3-3.3.so.0:_ZN14RegexpCompiler5LetraEv
liblttoolbox3-3.3.so.0:_ZN14RegexpCompiler5ListaEv
liblttoolbox3-3.3.so.0:_ZN14RegexpCompiler5RExprEv
liblttoolbox3-3.3.so.0:_ZN14RegexpCompiler5errorEv
liblttoolbox3-3.3.so.0:_ZN14RegexpCompiler6PostopEv
liblttoolbox3-3.3.so.0:_ZN14RegexpCompiler6RExprpEv
liblttoolbox3-3.3.so.0:_ZN14RegexpCompiler7compileERKNSt7__cxx1112basic_stringIwSt11char_traitsIwESaIwEEE
liblttoolbox3-3.3.so.0:_ZN14RegexpCompiler7consumeEi
liblttoolbox3-3.3.so.0:_ZN14RegexpCompiler7destroyEv
liblttoolbox3-3.3.so.0:_ZN14RegexpCompiler9ColaLetraEv
liblttoolbox3-3.3.so.0:_ZN14RegexpCompiler9ReservadoEv
liblttoolbox3-3.3.so.0:_ZN14RegexpCompilerC1ERKS_
liblttoolbox3-3.3.so.0:_ZN14RegexpCompilerC1Ev
liblttoolbox3-3.3.so.0:_ZN14RegexpCompilerC2ERKS_
liblttoolbox3-3.3.so.0:_ZN14RegexpCompilerC2Ev
liblttoolbox3-3.3.so.0:_ZN14RegexpCompilerD1Ev
liblttoolbox3-3.3.so.0:_ZN14RegexpCompilerD2Ev
liblttoolbox3-3.3.so.0:_ZN14RegexpCompileraSERKS_
liblttoolbox3-3.3.so.0:_ZN4Node13addTransitionEiiPS_
liblttoolbox3-3.3.so.0:_ZN4Node4copyERKS_
liblttoolbox3-3.3.so.0:_ZN4Node7destroyEv
liblttoolbox3-3.3.so.0:_ZN4NodeC1ERKS_
liblttoolbox3-3.3.so.0:_ZN4NodeC1Ev
liblttoolbox3-3.3.so.0:_ZN4NodeC2ERKS_
liblttoolbox3-3.3.so.0:_ZN4NodeC2Ev
liblttoolbox3-3.3.so.0:_ZN4NodeD1Ev
liblttoolbox3-3.3.so.0:_ZN4NodeD2Ev
liblttoolbox3-3.3.so.0:_ZN4NodeaSERKS_
liblttoolbox3-3.3.so.0:_ZN5State13restartFinalsERKSt3setIP4NodeSt4lessIS2_ESaIS2_EEiPS_i
liblttoolbox3-3.3.so.0:_ZN5State14epsilonClosureEv
liblttoolbox3-3.3.so.0:_ZN5State14pruneCompoundsEiii
liblttoolbox3-3.3.so.0:_ZN5State17getReadableStringB5cxx11ERK8Alphabet
liblttoolbox3-3.3.so.0:_ZN5State25lastPartHasRequiredSymbolERKSt6vectorIiSaIiEEii
liblttoolbox3-3.3.so.0:_ZN5State30pruneStatesWithForbiddenSymbolEi
liblttoolbox3-3.3.so.0:_ZN5State4copyERKS_
liblttoolbox3-3.3.so.0:_ZN5State4initEP4Node
liblttoolbox3-3.3.so.0:_ZN5State4stepEi
liblttoolbox3-3.3.so.0:_ZN5State4stepEii
liblttoolbox3-3.3.so.0:_ZN5State4stepEiii
liblttoolbox3-3.3.so.0:_ZN5State5applyEi
liblttoolbox3-3.3.so.0:_ZN5State5applyEii
liblttoolbox3-3.3.so.0:_ZN5State5applyEiii
liblttoolbox3-3.3.so.0:_ZN5State7destroyEv
liblttoolbox3-3.3.so.0:_ZN5State9step_caseEwb
liblttoolbox3-3.3.so.0:_ZN5State9step_caseEwwb
liblttoolbox3-3.3.so.0:_ZN5StateC1ERKS_
liblttoolbox3-3.3.so.0:_ZN5StateC1Ev
liblttoolbox3-3.3.so.0:_ZN5StateC2ERKS_
liblttoolbox3-3.3.so.0:_ZN5StateC2Ev
liblttoolbox3-3.3.so.0:_ZN5StateD1Ev
liblttoolbox3-3.3.so.0:_ZN5StateD2Ev
liblttoolbox3-3.3.so.0:_ZN5StateaSERKS_
liblttoolbox3-3.3.so.0:_ZN8Alphabet13includeSymbolERKNSt7__cxx1112basic_stringIwSt11char_traitsIwESaIwEEE
liblttoolbox3-3.3.so.0:_ZN8Alphabet15isSymbolDefinedERKNSt7__cxx1112basic_stringIwSt11char_traitsIwESaIwEEE
liblttoolbox3-3.3.so.0:_ZN8Alphabet21createLoopbackSymbolsERSt3setIiSt4lessIiESaIiEERS_NS_4SideEb
liblttoolbox3-3.3.so.0:_ZN8Alphabet4copyERKS_
liblttoolbox3-3.3.so.0:_ZN8Alphabet4readEP8_IO_FILE
liblttoolbox3-3.3.so.0:_ZN8Alphabet5writeEP8_IO_FILE
liblttoolbox3-3.3.so.0:_ZN8Alphabet7destroyEv
liblttoolbox3-3.3.so.0:_ZN8Alphabet9setSymbolEiNSt7__cxx1112basic_stringIwSt11char_traitsIwESaIwEEE
liblttoolbox3-3.3.so.0:_ZN8AlphabetC1ERKS_
liblttoolbox3-3.3.so.0:_ZN8AlphabetC1Ev
liblttoolbox3-3.3.so.0:_ZN8AlphabetC2ERKS_
liblttoolbox3-3.3.so.0:_ZN8AlphabetC2Ev
liblttoolbox3-3.3.so.0:_ZN8AlphabetD1Ev
liblttoolbox3-3.3.so.0:_ZN8AlphabetD2Ev
liblttoolbox3-3.3.so.0:_ZN8AlphabetaSERKS_
liblttoolbox3-3.3.so.0:_ZN8AlphabetclERKNSt7__cxx1112basic_stringIwSt11char_traitsIwESaIwEEE
liblttoolbox3-3.3.so.0:_ZN8AlphabetclEii
liblttoolbox3-3.3.so.0:_ZN8Compiler10procParDefEv
liblttoolbox3-3.3.so.0:_ZN8Compiler10procRegexpEv
liblttoolbox3-3.3.so.0:_ZN8Compiler10readStringERNSt7__cxx114listIiSaIiEEERKNS0_12basic_stringIwSt11char_traitsIwESaIwEEE
liblttoolbox3-3.3.so.0:_ZN8Compiler10setVerboseEb
liblttoolbox3-3.3.so.0:_ZN8Compiler10skipBlanksERNSt7__cxx1112basic_stringIwSt11char_traitsIwESaIwEEE
liblttoolbox3-3.3.so.0:_ZN8Compiler11procNodeACXEv
liblttoolbox3-3.3.so.0:_ZN8Compiler11procSectionEv
liblttoolbox3-3.3.so.0:_ZN8Compiler11setAltValueERKNSt7__cxx1112basic_stringIcSt11char_traitsIcESaIcEEE
liblttoolbox3-3.3.so.0:_ZN8Compiler12procAlphabetEv
liblttoolbox3-3.3.so.0:_ZN8Compiler12procIdentityEv
liblttoolbox3-3.3.so.0:_ZN8Compiler15setVariantValueERKNSt7__cxx1112basic_stringIcSt11char_traitsIcESaIcEEE
liblttoolbox3-3.3.so.0:_ZN8Compiler16procTransductionEv
liblttoolbox3-3.3.so.0:_ZN8Compiler16requireAttributeERKNSt7__cxx1112basic_stringIwSt11char_traitsIwESaIwEEES7_S7_
liblttoolbox3-3.3.so.0:_ZN8Compiler17insertEntryTokensERKSt6vectorI10EntryTokenSaIS1_EE
liblttoolbox3-3.3.so.0:_ZN8Compiler17matchTransductionERKNSt7__cxx114listIiSaIiEEES5_iR10Transducer
liblttoolbox3-3.3.so.0:_ZN8Compiler17requireEmptyErrorERKNSt7__cxx1112basic_stringIwSt11char_traitsIwESaIwEEE
liblttoolbox3-3.3.so.0:_ZN8Compiler19setVariantLeftValueERKNSt7__cxx1112basic_stringIcSt11char_traitsIcESaIcEEE
liblttoolbox3-3.3.so.0:_ZN8Compiler20setVariantRightValueERKNSt7__cxx1112basic_stringIcSt11char_traitsIcESaIcEEE
liblttoolbox3-3.3.so.0:_ZN8Compiler4skipERNSt7__cxx1112basic_stringIwSt11char_traitsIwESaIwEEERKS5_
liblttoolbox3-3.3.so.0:_ZN8Compiler4skipERNSt7__cxx1112basic_stringIwSt11char_traitsIwESaIwEEERKS5_b
liblttoolbox3-3.3.so.0:_ZN8Compiler5parseERKNSt7__cxx1112basic_stringIcSt11char_traitsIcESaIcEEERKNS1_IwS2_IwESaIwEEE
liblttoolbox3-3.3.so.0:_ZN8Compiler5writeEP8_IO_FILE
liblttoolbox3-3.3.so.0:_ZN8Compiler6attribERKNSt7__cxx1112basic_stringIwSt11char_traitsIwESaIwEEE
liblttoolbox3-3.3.so.0:_ZN8Compiler7procParEv
liblttoolbox3-3.3.so.0:_ZN8Compiler8parseACXERKNSt7__cxx1112basic_stringIcSt11char_traitsIcESaIcEEERKNS1_IwS2_IwESaIwEEE
liblttoolbox3-3.3.so.0:_ZN8Compiler8procNodeEv
liblttoolbox3-3.3.so.0:_ZN8Compiler8procSDefEv
liblttoolbox3-3.3.so.0:_ZN8Compiler9allBlanksEv
liblttoolbox3-3.3.so.0:_ZN8Compiler9procEntryEv
liblttoolbox3-3.3.so.0:_ZN8CompilerC1Ev
liblttoolbox3-3.3.so.0:_ZN8CompilerC2Ev
liblttoolbox3-3.3.so.0:_ZN8CompilerD1Ev
liblttoolbox3-3.3.so.0:_ZN8CompilerD2Ev
liblttoolbox3-3.3.so.0:_ZN8Expander10procParDefEv
liblttoolbox3-3.3.so.0:_ZN8Expander10procRegexpB5cxx11Ev
liblttoolbox3-3.3.so.0:_ZN8Expander10readStringERNSt7__cxx1112basic_stringIwSt11char_traitsIwESaIwEEERKS5_
liblttoolbox3-3.3.so.0:_ZN8Expander10skipBlanksERNSt7__cxx1112basic_stringIwSt11char_traitsIwESaIwEEE
liblttoolbox3-3.3.so.0:_ZN8Expander11setAltValueERKNSt7__cxx1112basic_stringIcSt11char_traitsIcESaIcEEE
liblttoolbox3-3.3.so.0:_ZN8Expander12procIdentityB5cxx11Ev
liblttoolbox3-3.3.so.0:_ZN8Expander15setVariantValueERKNSt7__cxx1112basic_stringIcSt11char_traitsIcESaIcEEE
liblttoolbox3-3.3.so.0:_ZN8Expander16procTransductionB5cxx11Ev
liblttoolbox3-3.3.so.0:_ZN8Expander16requireAttributeERKNSt7__cxx1112basic_stringIwSt11char_traitsIwESaIwEEES7_S7_
liblttoolbox3-3.3.so.0:_ZN8Expander17requireEmptyErrorERKNSt7__cxx1112basic_stringIwSt11char_traitsIwESaIwEEE
liblttoolbox3-3.3.so.0:_ZN8Expander19setVariantLeftValueERKNSt7__cxx1112basic_stringIcSt11char_traitsIcESaIcEEE
liblttoolbox3-3.3.so.0:_ZN8Expander20setVariantRightValueERKNSt7__cxx1112basic_stringIcSt11char_traitsIcESaIcEEE
liblttoolbox3-3.3.so.0:_ZN8Expander4skipERNSt7__cxx1112basic_stringIwSt11char_traitsIwESaIwEEERKS5_
liblttoolbox3-3.3.so.0:_ZN8Expander6appendERNSt7__cxx114listISt4pairINS0_12basic_stringIwSt11char_traitsIwESaIwEEES7_ESaIS8_EEERKS7_
liblttoolbox3-3.3.so.0:_ZN8Expander6appendERNSt7__cxx114listISt4pairINS0_12basic_stringIwSt11char_traitsIwESaIwEEES7_ESaIS8_EEERKS8_
liblttoolbox3-3.3.so.0:_ZN8Expander6appendERNSt7__cxx114listISt4pairINS0_12basic_stringIwSt11char_traitsIwESaIwEEES7_ESaIS8_EEERKSA_
liblttoolbox3-3.3.so.0:_ZN8Expander6attribERKNSt7__cxx1112basic_stringIwSt11char_traitsIwESaIwEEE
liblttoolbox3-3.3.so.0:_ZN8Expander6expandERKNSt7__cxx1112basic_stringIcSt11char_traitsIcESaIcEEEP8_IO_FILE
liblttoolbox3-3.3.so.0:_ZN8Expander7procParB5cxx11Ev
liblttoolbox3-3.3.so.0:_ZN8Expander8procNodeEP8_IO_FILE
liblttoolbox3-3.3.so.0:_ZN8Expander9allBlanksEv
liblttoolbox3-3.3.so.0:_ZN8Expander9procEntryEP8_IO_FILE
liblttoolbox3-3.3.so.0:_ZN8ExpanderC1Ev
liblttoolbox3-3.3.so.0:_ZN8ExpanderC2Ev
liblttoolbox3-3.3.so.0:_ZN8ExpanderD1Ev
liblttoolbox3-3.3.so.0:_ZN8ExpanderD2Ev
liblttoolbox3-3.3.so.0:_ZN8LtLocale14tryToSetLocaleEv
liblttoolbox3-3.3.so.0:_ZN8MatchExe10getInitialEv
liblttoolbox3-3.3.so.0:_ZN8MatchExe4copyERKS_
liblttoolbox3-3.3.so.0:_ZN8MatchExe7destroyEv
liblttoolbox3-3.3.so.0:_ZN8MatchExe9getFinalsEv
liblttoolbox3-3.3.so.0:_ZN8MatchExeC1ERK10TransducerRKSt3mapIiiSt4lessIiESaISt4pairIKiiEEE
liblttoolbox3-3.3.so.0:_ZN8MatchExeC1ERKS_
liblttoolbox3-3.3.so.0:_ZN8MatchExeC1Ev
liblttoolbox3-3.3.so.0:_ZN8MatchExeC2ERK10TransducerRKSt3mapIiiSt4lessIiESaISt4pairIKiiEEE
liblttoolbox3-3.3.so.0:_ZN8MatchExeC2ERKS_
liblttoolbox3-3.3.so.0:_ZN8MatchExeC2Ev
liblttoolbox3-3.3.so.0:_ZN8MatchExeD1Ev
liblttoolbox3-3.3.so.0:_ZN8MatchExeD2Ev
liblttoolbox3-3.3.so.0:_ZN8MatchExeaSERKS_
liblttoolbox3-3.3.so.0:_ZN8TransExe10getInitialEv
liblttoolbox3-3.3.so.0:_ZN8TransExe11unifyFinalsEv
liblttoolbox3-3.3.so.0:_ZN8TransExe4copyERKS_
liblttoolbox3-3.3.so.0:_ZN8TransExe4readEP8_IO_FILERK8Alphabet
liblttoolbox3-3.3.so.0:_ZN8TransExe7destroyEv
liblttoolbox3-3.3.so.0:_ZN8TransExe9getFinalsEv
liblttoolbox3-3.3.so.0:_ZN8TransExeC1ERKS_
liblttoolbox3-3.3.so.0:_ZN8TransExeC1Ev
liblttoolbox3-3.3.so.0:_ZN8TransExeC2ERKS_
liblttoolbox3-3.3.so.0:_ZN8TransExeC2Ev
liblttoolbox3-3.3.so.0:_ZN8TransExeD1Ev
liblttoolbox3-3.3.so.0:_ZN8TransExeD2Ev
liblttoolbox3-3.3.so.0:_ZN8TransExeaSERKS_
liblttoolbox3-3.3.so.0:_ZN9MatchNode13addTransitionEiPS_i
liblttoolbox3-3.3.so.0:_ZN9MatchNode4copyERKS_
liblttoolbox3-3.3.so.0:_ZN9MatchNode7destroyEv
liblttoolbox3-3.3.so.0:_ZN9MatchNodeC1ERKS_
liblttoolbox3-3.3.so.0:_ZN9MatchNodeC1Ei
liblttoolbox3-3.3.so.0:_ZN9MatchNodeC2ERKS_
liblttoolbox3-3.3.so.0:_ZN9MatchNodeC2Ei
liblttoolbox3-3.3.so.0:_ZN9MatchNodeD1Ev
liblttoolbox3-3.3.so.0:_ZN9MatchNodeD2Ev
liblttoolbox3-3.3.so.0:_ZN9MatchNodeaSERKS_
liblttoolbox3-3.3.so.0:_ZNK10EntryToken10isParadigmEv
liblttoolbox3-3.3.so.0:_ZNK10EntryToken12paradigmNameB5cxx11Ev
liblttoolbox3-3.3.so.0:_ZNK10EntryToken20isSingleTransductionEv
liblttoolbox3-3.3.so.0:_ZNK10EntryToken4leftB5cxx11Ev
liblttoolbox3-3.3.so.0:_ZNK10EntryToken5rightB5cxx11Ev
liblttoolbox3-3.3.so.0:_ZNK10EntryToken6regExpB5cxx11Ev
liblttoolbox3-3.3.so.0:_ZNK10EntryToken8isRegexpEv
liblttoolbox3-3.3.so.0:_ZNK10MatchState14classifyFinalsERKSt3mapIP9MatchNodeiSt4lessIS2_ESaISt4pairIKS2_iEEE
liblttoolbox3-3.3.so.0:_ZNK10MatchState14classifyFinalsERKSt3mapIP9MatchNodeiSt4lessIS2_ESaISt4pairIKS2_iEEERKSt3setIiS3_IiESaIiEE
liblttoolbox3-3.3.so.0:_ZNK10MatchState4sizeEv
liblttoolbox3-3.3.so.0:_ZNK10Transducer10getInitialEv
liblttoolbox3-3.3.so.0:_ZNK10Transducer11hasNoFinalsEv
liblttoolbox3-3.3.so.0:_ZNK10Transducer19numberOfTransitionsEv
liblttoolbox3-3.3.so.0:_ZNK10Transducer4showERK8AlphabetP8_IO_FILEi
liblttoolbox3-3.3.so.0:_ZNK10Transducer4sizeEv
liblttoolbox3-3.3.so.0:_ZNK10Transducer7isEmptyEi
liblttoolbox3-3.3.so.0:_ZNK10Transducer7isEmptyEv
liblttoolbox3-3.3.so.0:_ZNK10Transducer7isFinalEi
liblttoolbox3-3.3.so.0:_ZNK11TMXCompiler12numberLengthERSt6vectorIiSaIiEEj
liblttoolbox3-3.3.so.0:_ZNK11TMXCompiler4joinERKSt6vectorIS0_IiSaIiEESaIS2_EEi
liblttoolbox3-3.3.so.0:_ZNK11TMXCompiler4trimERSt6vectorIiSaIiEE
liblttoolbox3-3.3.so.0:_ZNK11TMXCompiler5splitERKSt6vectorIiSaIiEERS0_IS2_SaIS2_EEi
liblttoolbox3-3.3.so.0:_ZNK11TMXCompiler6getTagB5cxx11ERKm
liblttoolbox3-3.3.so.0:_ZNK11TMXCompiler9vectorcmpERKSt6vectorIiSaIiEEjS4_jj
liblttoolbox3-3.3.so.0:_ZNK12FSTProcessor12isAlphabeticEw
liblttoolbox3-3.3.so.0:_ZNK12FSTProcessor5validEv
liblttoolbox3-3.3.so.0:_ZNK12FSTProcessor7composeERKNSt7__cxx1112basic_stringIwSt11char_traitsIwESaIwEEES7_
liblttoolbox3-3.3.so.0:_ZNK12FSTProcessor9isEscapedEw
liblttoolbox3-3.3.so.0:_ZNK5State12filterFinalsB5cxx11ERKSt3setIP4NodeSt4lessIS2_ESaIS2_EERK8AlphabetRKS0_IwS3_IwESaIwEEbbi
liblttoolbox3-3.3.so.0:_ZNK5State14filterFinalsTMERKSt3setIP4NodeSt4lessIS2_ESaIS2_EERK8AlphabetRKS0_IwS3_IwESaIwEERSt5queueINSt7__cxx1112basic_stringIwSt11char_traitsIwESD_EESt5dequeISM_SaISM_EEERSt6vectorISM_SO_E
liblttoolbox3-3.3.so.0:_ZNK5State15filterFinalsLRXB5cxx11ERKSt3setIP4NodeSt4lessIS2_ESaIS2_EERK8AlphabetRKS0_IwS3_IwESaIwEEbbi
liblttoolbox3-3.3.so.0:_ZNK5State15filterFinalsSAOB5cxx11ERKSt3setIP4NodeSt4lessIS2_ESaIS2_EERK8AlphabetRKS0_IwS3_IwESaIwEEbbi
liblttoolbox3-3.3.so.0:_ZNK5State4sizeEv
liblttoolbox3-3.3.so.0:_ZNK5State7isFinalERKSt3setIP4NodeSt4lessIS2_ESaIS2_EE
liblttoolbox3-3.3.so.0:_ZNK8Alphabet11writeSymbolEiP8_IO_FILE
liblttoolbox3-3.3.so.0:_ZNK8Alphabet4sizeEv
liblttoolbox3-3.3.so.0:_ZNK8Alphabet5isTagEi
liblttoolbox3-3.3.so.0:_ZNK8Alphabet6decodeEi
liblttoolbox3-3.3.so.0:_ZNK8Alphabet9getSymbolERNSt7__cxx1112basic_stringIwSt11char_traitsIwESaIwEEEib
